target datalayout = "e-m:e-p270:32:32-p271:32:32-p272:64:64-i64:64-i128:128-f80:128-n8:16:32:64-S128"
target triple = "x86_64-pc-linux-gnu"

%struct._asn1_ctx_t = type { i32, i32, i8, ptr, ptr, ptr, ptr, ptr, %struct.anon, %struct.anon.2, %struct.anon.3, ptr }
%struct.anon = type { i32, i8, i8, i8, ptr, ptr, i32, i32, ptr, ptr, ptr, %union.anon }
%union.anon = type { %struct.anon.0 }
%struct.anon.0 = type { ptr }
%struct.anon.2 = type { ptr, ptr, ptr }
%struct.anon.3 = type { i32, i8, ptr, i32, i32, ptr, ptr, ptr, %union.anon.4 }
%union.anon.4 = type { %struct.anon.5 }
%struct.anon.5 = type { ptr }

@ber_oid_dissector_table = internal global ptr null, align 8

; Function Attrs: null_pointer_is_valid sspstrong uwtable
define i32 @dissect_ber_octet_string(i1 noundef zeroext %0, ptr noundef %1, ptr noundef %2, ptr noundef %3, i32 noundef %4, i32 noundef %5, ptr noundef %6) #0 {
  %8 = alloca i8, align 1
  %9 = alloca ptr, align 8
  %10 = alloca ptr, align 8
  %11 = alloca ptr, align 8
  %12 = alloca i32, align 4
  %13 = alloca i32, align 4
  %14 = alloca ptr, align 8
  %15 = zext i1 %0 to i8
  store i8 %15, ptr %8, align 1
  store ptr %1, ptr %9, align 8
  store ptr %2, ptr %10, align 8
  store ptr %3, ptr %11, align 8
  store i32 %4, ptr %12, align 4
  store i32 %5, ptr %13, align 4
  store ptr %6, ptr %14, align 8
  %16 = load i8, ptr %8, align 1, !range !6, !noundef !7
  %17 = trunc i8 %16 to i1
  %18 = load ptr, ptr %9, align 8
  %19 = load ptr, ptr %10, align 8
  %20 = load ptr, ptr %11, align 8
  %21 = load i32, ptr %12, align 4
  %22 = load i32, ptr %13, align 4
  %23 = load ptr, ptr %14, align 8
  %24 = call i32 @dissect_ber_constrained_octet_string_impl(i1 noundef zeroext %17, ptr noundef %18, ptr noundef %19, ptr noundef %20, i32 noundef %21, i32 noundef -1, i32 noundef -1, i32 noundef %22, ptr noundef %23, i32 noundef 0, i32 noundef 0)
  ret i32 %24
}

; Function Attrs: null_pointer_is_valid sspstrong uwtable
define internal i32 @dissect_ber_T_octet_aligned(i1 noundef zeroext %0, ptr noundef %1, i32 noundef %2, ptr noundef %3, ptr noundef %4, i32 noundef %5) #0 {
  %7 = alloca i8, align 1
  %8 = alloca ptr, align 8
  %9 = alloca i32, align 4
  %10 = alloca ptr, align 8
  %11 = alloca ptr, align 8
  %12 = alloca i32, align 4
  %13 = zext i1 %0 to i8
  store i8 %13, ptr %7, align 1
  store ptr %1, ptr %8, align 8
  store i32 %2, ptr %9, align 4
  store ptr %3, ptr %10, align 8
  store ptr %4, ptr %11, align 8
  store i32 %5, ptr %12, align 4
  %14 = load ptr, ptr %10, align 8
  %15 = getelementptr inbounds nuw %struct._asn1_ctx_t, ptr %14, i32 0, i32 8
  %16 = getelementptr inbounds nuw %struct.anon, ptr %15, i32 0, i32 11
  %17 = getelementptr inbounds nuw %struct.anon.0, ptr %16, i32 0, i32 0
  %18 = load ptr, ptr %17, align 8
  %19 = icmp ne ptr %18, null
  br i1 %19, label %20, label %32

20:                                               ; preds = %6
  %21 = load ptr, ptr %10, align 8
  %22 = getelementptr inbounds nuw %struct._asn1_ctx_t, ptr %21, i32 0, i32 8
  %23 = getelementptr inbounds nuw %struct.anon, ptr %22, i32 0, i32 11
  %24 = getelementptr inbounds nuw %struct.anon.0, ptr %23, i32 0, i32 0
  %25 = load ptr, ptr %24, align 8
  %26 = load ptr, ptr %8, align 8
  %27 = load i32, ptr %9, align 4
  %28 = load ptr, ptr %10, align 8
  %29 = load ptr, ptr %11, align 8
  %30 = load i32, ptr %12, align 4
  %31 = call i32 %25(i1 noundef zeroext false, ptr noundef %26, i32 noundef %27, ptr noundef %28, ptr noundef %29, i32 noundef %30)
  store i32 %31, ptr %9, align 4
  br label %71

32:                                               ; preds = %6
  %33 = load ptr, ptr %10, align 8
  %34 = getelementptr inbounds nuw %struct._asn1_ctx_t, ptr %33, i32 0, i32 8
  %35 = getelementptr inbounds nuw %struct.anon, ptr %34, i32 0, i32 2
  %36 = load i8, ptr %35, align 1, !range !6, !noundef !7
  %37 = trunc i8 %36 to i1
  br i1 %37, label %38, label %58

38:                                               ; preds = %32
  %39 = load ptr, ptr @ber_oid_dissector_table, align 8
  %40 = load ptr, ptr %10, align 8
  %41 = getelementptr inbounds nuw %struct._asn1_ctx_t, ptr %40, i32 0, i32 8
  %42 = getelementptr inbounds nuw %struct.anon, ptr %41, i32 0, i32 5
  %43 = load ptr, ptr %42, align 8
  %44 = call ptr @dissector_get_string_handle(ptr noundef %39, ptr noundef %43)
  %45 = icmp ne ptr %44, null
  br i1 %45, label %46, label %58

46:                                               ; preds = %38
  %47 = load ptr, ptr %10, align 8
  %48 = getelementptr inbounds nuw %struct._asn1_ctx_t, ptr %47, i32 0, i32 8
  %49 = getelementptr inbounds nuw %struct.anon, ptr %48, i32 0, i32 5
  %50 = load ptr, ptr %49, align 8
  %51 = load ptr, ptr %8, align 8
  %52 = load i32, ptr %9, align 4
  %53 = load ptr, ptr %10, align 8
  %54 = getelementptr inbounds nuw %struct._asn1_ctx_t, ptr %53, i32 0, i32 3
  %55 = load ptr, ptr %54, align 8
  %56 = load ptr, ptr %11, align 8
  %57 = call i32 @call_ber_oid_callback(ptr noundef %50, ptr noundef %51, i32 noundef %52, ptr noundef %55, ptr noundef %56, ptr noundef null)
  store i32 %57, ptr %9, align 4
  br label %70

58:                                               ; preds = %38, %32
  %59 = load i8, ptr %7, align 1, !range !6, !noundef !7
  %60 = trunc i8 %59 to i1
  %61 = load ptr, ptr %10, align 8
  %62 = load ptr, ptr %11, align 8
  %63 = load ptr, ptr %8, align 8
  %64 = load i32, ptr %9, align 4
  %65 = load i32, ptr %12, align 4
  %66 = load ptr, ptr %10, align 8
  %67 = getelementptr inbounds nuw %struct._asn1_ctx_t, ptr %66, i32 0, i32 8
  %68 = getelementptr inbounds nuw %struct.anon, ptr %67, i32 0, i32 9
  %69 = call i32 @dissect_ber_octet_string(i1 noundef zeroext %60, ptr noundef %61, ptr noundef %62, ptr noundef %63, i32 noundef %64, i32 noundef %65, ptr noundef %68)
  store i32 %69, ptr %9, align 4
  br label %70

70:                                               ; preds = %58, %46
  br label %71

71:                                               ; preds = %70, %20
  %72 = load i32, ptr %9, align 4
  ret i32 %72
}