; Function Attrs: null_pointer_is_valid sspstrong uwtable
define internal i32 @dissect_ber_T_octet_aligned(i1 noundef zeroext %0, ptr noundef %1, i32 noundef %2, ptr noundef %3, ptr noundef %4, i32 noundef %5) #0 {
  %7 = getelementptr inbounds nuw i8, ptr %3, i64 112
  %8 = load ptr, ptr %7, align 8
  %.not = icmp eq ptr %8, null
  br i1 %.not, label %11, label %9

9:                                                ; preds = %6
  %10 = tail call i32 %8(i1 noundef zeroext false, ptr noundef %1, i32 noundef %2, ptr noundef %3, ptr noundef %4, i32 noundef %5)
  br label %28

11:                                               ; preds = %6
  %12 = getelementptr inbounds nuw i8, ptr %3, i64 61
  %13 = load i8, ptr %12, align 1, !range !8, !noundef !9
  %14 = trunc nuw i8 %13 to i1
  br i1 %14, label %15, label %25

15:                                               ; preds = %11
  %16 = load ptr, ptr @ber_oid_dissector_table, align 8
  %17 = getelementptr inbounds nuw i8, ptr %3, i64 72
  %18 = load ptr, ptr %17, align 8
  %19 = tail call ptr @dissector_get_string_handle(ptr noundef %16, ptr noundef %18)
  %.not22 = icmp eq ptr %19, null
  br i1 %.not22, label %25, label %20

20:                                               ; preds = %15
  %21 = load ptr, ptr %17, align 8
  %22 = getelementptr inbounds nuw i8, ptr %3, i64 16
  %23 = load ptr, ptr %22, align 8
  %24 = tail call i32 @call_ber_oid_callback(ptr noundef %21, ptr noundef %1, i32 noundef %2, ptr noundef %23, ptr noundef %4, ptr noundef null)
  br label %28

25:                                               ; preds = %15, %11
  %26 = getelementptr inbounds nuw i8, ptr %3, i64 96
  %27 = tail call fastcc i32 @dissect_ber_constrained_octet_string_impl(i1 noundef zeroext %0, ptr noundef %3, ptr noundef %4, ptr noundef %1, i32 noundef %2, i32 noundef -1, i32 noundef -1, i32 noundef %5, ptr noundef nonnull %26, i32 noundef 0, i32 noundef 0)
  br label %28

28:                                               ; preds = %20, %25, %9
  %.0 = phi i32 [ %10, %9 ], [ %24, %20 ], [ %27, %25 ]
  ret i32 %.0
}